target datalayout = "e-m:e-p270:32:32-p271:32:32-p272:64:64-i64:64-i128:128-f80:128-n8:16:32:64-S128"
target triple = "x86_64-pc-linux-gnu"

@.str = private unnamed_addr constant [3 x i8] c"wb\00", align 1

; Function Attrs: nounwind uwtable
define hidden i32 @mbedtls_entropy_write_seed_file(ptr noundef %0, ptr noundef %1) #0 {
  %3 = alloca ptr, align 8
  %4 = alloca ptr, align 8
  %5 = alloca i32, align 4
  %6 = alloca ptr, align 8
  %7 = alloca [64 x i8], align 16
  store ptr %0, ptr %3, align 8, !tbaa !3
  store ptr %1, ptr %4, align 8, !tbaa !23
  call void @llvm.lifetime.start.p0(i64 4, ptr %5) #6
  store i32 -110, ptr %5, align 4, !tbaa !17
  call void @llvm.lifetime.start.p0(i64 8, ptr %6) #6
  store ptr null, ptr %6, align 8, !tbaa !32
  call void @llvm.lifetime.start.p0(i64 64, ptr %7) #6
  %8 = load ptr, ptr %3, align 8, !tbaa !3
  %9 = getelementptr inbounds [64 x i8], ptr %7, i64 0, i64 0
  %10 = call i32 @mbedtls_entropy_func(ptr noundef %8, ptr noundef %9, i64 noundef 64)
  store i32 %10, ptr %5, align 4, !tbaa !17
  %11 = icmp ne i32 %10, 0
  br i1 %11, label %12, label %13

12:                                               ; preds = %2
  store i32 -60, ptr %5, align 4, !tbaa !17
  br label %26

13:                                               ; preds = %2
  %14 = load ptr, ptr %4, align 8, !tbaa !23
  %15 = call noalias ptr @fopen(ptr noundef %14, ptr noundef @.str)
  store ptr %15, ptr %6, align 8, !tbaa !32
  %16 = icmp eq ptr %15, null
  br i1 %16, label %17, label %18

17:                                               ; preds = %13
  store i32 -63, ptr %5, align 4, !tbaa !17
  br label %26

18:                                               ; preds = %13
  %19 = load ptr, ptr %6, align 8, !tbaa !32
  call void @setbuf(ptr noundef %19, ptr noundef null) #6
  %20 = getelementptr inbounds [64 x i8], ptr %7, i64 0, i64 0
  %21 = load ptr, ptr %6, align 8, !tbaa !32
  %22 = call i64 @fwrite(ptr noundef %20, i64 noundef 1, i64 noundef 64, ptr noundef %21)
  %23 = icmp ne i64 %22, 64
  br i1 %23, label %24, label %25

24:                                               ; preds = %18
  store i32 -63, ptr %5, align 4, !tbaa !17
  br label %26

25:                                               ; preds = %18
  store i32 0, ptr %5, align 4, !tbaa !17
  br label %26

26:                                               ; preds = %25, %24, %17, %12
  %27 = getelementptr inbounds [64 x i8], ptr %7, i64 0, i64 0
  call void @mbedtls_platform_zeroize(ptr noundef %27, i64 noundef 64)
  %28 = load ptr, ptr %6, align 8, !tbaa !32
  %29 = icmp ne ptr %28, null
  br i1 %29, label %30, label %33

30:                                               ; preds = %26
  %31 = load ptr, ptr %6, align 8, !tbaa !32
  %32 = call i32 @fclose(ptr noundef %31)
  br label %33

33:                                               ; preds = %30, %26
  %34 = load i32, ptr %5, align 4, !tbaa !17
  call void @llvm.lifetime.end.p0(i64 64, ptr %7) #6
  call void @llvm.lifetime.end.p0(i64 8, ptr %6) #6
  call void @llvm.lifetime.end.p0(i64 4, ptr %5) #6
  ret i32 %34
}