; Function Attrs: nounwind uwtable
define hidden range(i32 -63, 1) i32 @mbedtls_entropy_write_seed_file(ptr noundef %0, ptr noundef readonly captures(none) %1) local_unnamed_addr #0 {
  %3 = alloca [64 x i8], align 16
  call void @llvm.lifetime.start.p0(i64 64, ptr nonnull %3) #10
  %4 = call i32 @mbedtls_entropy_func(ptr noundef %0, ptr noundef nonnull %3, i64 noundef 64)
  %.not = icmp eq i32 %4, 0
  br i1 %.not, label %5, label %.thread

5:                                                ; preds = %2
  %6 = tail call noalias ptr @fopen(ptr noundef %1, ptr noundef nonnull @.str)
  %7 = icmp eq ptr %6, null
  br i1 %7, label %.thread, label %8

.thread:                                          ; preds = %2, %5
  %.06.ph = phi i32 [ -63, %5 ], [ -60, %2 ]
  call void @mbedtls_platform_zeroize(ptr noundef nonnull %3, i64 noundef 64) #10
  br label %11

8:                                                ; preds = %5
  tail call void @setbuf(ptr noundef nonnull %6, ptr noundef null) #10
  %9 = call i64 @fwrite(ptr noundef nonnull %3, i64 noundef 1, i64 noundef 64, ptr noundef nonnull %6)
  %.not8 = icmp eq i64 %9, 64
  %. = select i1 %.not8, i32 0, i32 -63
  call void @mbedtls_platform_zeroize(ptr noundef nonnull %3, i64 noundef 64) #10
  %10 = call i32 @fclose(ptr noundef nonnull %6)
  br label %11

11:                                               ; preds = %.thread, %8
  %.0613 = phi i32 [ %.06.ph, %.thread ], [ %., %8 ]
  call void @llvm.lifetime.end.p0(i64 64, ptr nonnull %3) #10
  ret i32 %.0613
}